target datalayout = "e-m:e-p270:32:32-p271:32:32-p272:64:64-i64:64-i128:128-f80:128-n8:16:32:64-S128"
target triple = "x86_64-pc-linux-gnu"

%union.pthread_mutex_t = type { %struct.__pthread_mutex_s }
%struct.__pthread_mutex_s = type { i32, i32, i32, i32, i32, i16, i16, %struct.__pthread_internal_list }
%struct.__pthread_internal_list = type { ptr, ptr }
%struct.slurmdbd_conn_t = type { ptr, ptr, %union.pthread_mutex_t, ptr, ptr }
%struct.persist_conn_t = type { ptr, i32, i32, i8, ptr, ptr, ptr, i64, i16, i32, i16, i8, i32, i32, ptr, i16, ptr, i64, i32, ptr, %struct.slurm_trigger_callbacks_t, i16 }
%struct.slurm_trigger_callbacks_t = type { ptr, ptr, ptr, ptr, ptr }
%struct.persist_msg_t = type { ptr, ptr, i16 }
%struct.dbd_list_msg_t = type { ptr, i32 }
%struct.dbd_cond_msg_t = type { ptr }
%struct.slurmdb_user_cond_t = type { i16, ptr, ptr, ptr, i16, i16, i16, i16, i16 }
%struct.slurmdb_assoc_cond_t = type { ptr, ptr, ptr, i32, ptr, ptr, ptr, ptr, ptr, i64, i64, ptr }

@.str.80 = private unnamed_addr constant [33 x i8] c"DBD_GET_USERS: called in CONN %d\00", align 1

; Function Attrs: nounwind uwtable
define internal i32 @_get_users(ptr noundef %0, ptr noundef %1, ptr noundef %2) #0 {
  %4 = alloca ptr, align 8
  %5 = alloca ptr, align 8
  %6 = alloca ptr, align 8
  %7 = alloca ptr, align 8
  %8 = alloca %struct.dbd_list_msg_t, align 8
  %9 = alloca i32, align 4
  %10 = alloca ptr, align 8
  %11 = alloca ptr, align 8
  store ptr %0, ptr %4, align 8
  store ptr %1, ptr %5, align 8
  store ptr %2, ptr %6, align 8
  call void @llvm.lifetime.start.p0(i64 8, ptr %7) #8
  %12 = load ptr, ptr %5, align 8
  %13 = getelementptr inbounds nuw %struct.persist_msg_t, ptr %12, i32 0, i32 1
  %14 = load ptr, ptr %13, align 8
  store ptr %14, ptr %7, align 8
  call void @llvm.lifetime.start.p0(i64 16, ptr %8) #8
  call void @llvm.memset.p0.i64(ptr align 8 %8, i8 0, i64 16, i1 false)
  call void @llvm.lifetime.start.p0(i64 4, ptr %9) #8
  store i32 0, ptr %9, align 4
  call void @llvm.lifetime.start.p0(i64 8, ptr %10) #8
  store ptr null, ptr %10, align 8
  br label %15

15:                                               ; preds = %3
  br label %16

16:                                               ; preds = %15
  %17 = call i32 @get_log_level()
  %18 = icmp sge i32 %17, 6
  br i1 %18, label %19, label %25

19:                                               ; preds = %16
  %20 = load ptr, ptr %4, align 8
  %21 = getelementptr inbounds nuw %struct.slurmdbd_conn_t, ptr %20, i32 0, i32 0
  %22 = load ptr, ptr %21, align 8
  %23 = getelementptr inbounds nuw %struct.persist_conn_t, ptr %22, i32 0, i32 9
  %24 = load i32, ptr %23, align 4
  call void (i32, ptr, ...) @log_var(i32 noundef 6, ptr noundef @.str.80, i32 noundef %24)
  br label %25

25:                                               ; preds = %19, %16
  br label %26

26:                                               ; preds = %25
  br label %27

27:                                               ; preds = %26
  br label %28

28:                                               ; preds = %27
  br label %29

29:                                               ; preds = %28
  %30 = load ptr, ptr %7, align 8
  %31 = getelementptr inbounds nuw %struct.dbd_cond_msg_t, ptr %30, i32 0, i32 0
  %32 = load ptr, ptr %31, align 8
  store ptr %32, ptr %10, align 8
  %33 = load ptr, ptr %10, align 8
  %34 = getelementptr inbounds nuw %struct.slurmdb_user_cond_t, ptr %33, i32 0, i32 4
  %35 = load i16, ptr %34, align 8
  %36 = icmp ne i16 %35, 0
  br i1 %36, label %81, label %37

37:                                               ; preds = %29
  %38 = load ptr, ptr %10, align 8
  %39 = getelementptr inbounds nuw %struct.slurmdb_user_cond_t, ptr %38, i32 0, i32 7
  %40 = load i16, ptr %39, align 2
  %41 = icmp ne i16 %40, 0
  br i1 %41, label %81, label %42

42:                                               ; preds = %37
  %43 = load ptr, ptr %4, align 8
  %44 = getelementptr inbounds nuw %struct.slurmdbd_conn_t, ptr %43, i32 0, i32 0
  %45 = load ptr, ptr %44, align 8
  %46 = getelementptr inbounds nuw %struct.persist_conn_t, ptr %45, i32 0, i32 21
  %47 = load i16, ptr %46, align 8
  %48 = zext i16 %47 to i32
  %49 = icmp slt i32 %48, 8
  br i1 %49, label %59, label %50

50:                                               ; preds = %42
  %51 = load ptr, ptr %10, align 8
  %52 = getelementptr inbounds nuw %struct.slurmdb_user_cond_t, ptr %51, i32 0, i32 1
  %53 = load ptr, ptr %52, align 8
  %54 = getelementptr inbounds nuw %struct.slurmdb_assoc_cond_t, ptr %53, i32 0, i32 3
  %55 = load i32, ptr %54, align 8
  %56 = zext i32 %55 to i64
  %57 = and i64 %56, 4
  %58 = icmp ne i64 %57, 0
  br i1 %58, label %59, label %81

59:                                               ; preds = %50, %42
  call void @llvm.lifetime.start.p0(i64 8, ptr %11) #8
  %60 = load ptr, ptr %10, align 8
  %61 = getelementptr inbounds nuw %struct.slurmdb_user_cond_t, ptr %60, i32 0, i32 1
  %62 = load ptr, ptr %61, align 8
  %63 = getelementptr inbounds nuw %struct.slurmdb_assoc_cond_t, ptr %62, i32 0, i32 1
  %64 = load ptr, ptr %63, align 8
  store ptr %64, ptr %11, align 8
  %65 = load ptr, ptr %11, align 8
  %66 = icmp ne ptr %65, null
  br i1 %66, label %80, label %67

67:                                               ; preds = %59
  %68 = call ptr @list_create(ptr noundef null)
  store ptr %68, ptr %11, align 8
  %69 = load ptr, ptr %11, align 8
  %70 = load ptr, ptr %4, align 8
  %71 = getelementptr inbounds nuw %struct.slurmdbd_conn_t, ptr %70, i32 0, i32 0
  %72 = load ptr, ptr %71, align 8
  %73 = getelementptr inbounds nuw %struct.persist_conn_t, ptr %72, i32 0, i32 6
  %74 = load ptr, ptr %73, align 8
  call void @list_append(ptr noundef %69, ptr noundef %74)
  %75 = load ptr, ptr %11, align 8
  %76 = load ptr, ptr %10, align 8
  %77 = getelementptr inbounds nuw %struct.slurmdb_user_cond_t, ptr %76, i32 0, i32 1
  %78 = load ptr, ptr %77, align 8
  %79 = getelementptr inbounds nuw %struct.slurmdb_assoc_cond_t, ptr %78, i32 0, i32 1
  store ptr %75, ptr %79, align 8
  br label %80

80:                                               ; preds = %67, %59
  call void @llvm.lifetime.end.p0(i64 8, ptr %11) #8
  br label %81

81:                                               ; preds = %80, %50, %37, %29
  %82 = load ptr, ptr %4, align 8
  %83 = getelementptr inbounds nuw %struct.slurmdbd_conn_t, ptr %82, i32 0, i32 3
  %84 = load ptr, ptr %83, align 8
  %85 = load ptr, ptr %4, align 8
  %86 = getelementptr inbounds nuw %struct.slurmdbd_conn_t, ptr %85, i32 0, i32 0
  %87 = load ptr, ptr %86, align 8
  %88 = getelementptr inbounds nuw %struct.persist_conn_t, ptr %87, i32 0, i32 1
  %89 = load i32, ptr %88, align 8
  %90 = load ptr, ptr %10, align 8
  %91 = call ptr @acct_storage_g_get_users(ptr noundef %84, i32 noundef %89, ptr noundef %90)
  %92 = getelementptr inbounds nuw %struct.dbd_list_msg_t, ptr %8, i32 0, i32 0
  store ptr %91, ptr %92, align 8
  %93 = call ptr @__errno_location() #10
  %94 = load i32, ptr %93, align 4
  %95 = icmp ne i32 %94, 0
  br i1 %95, label %115, label %96

96:                                               ; preds = %81
  %97 = getelementptr inbounds nuw %struct.dbd_list_msg_t, ptr %8, i32 0, i32 0
  %98 = load ptr, ptr %97, align 8
  %99 = icmp ne ptr %98, null
  br i1 %99, label %103, label %100

100:                                              ; preds = %96
  %101 = call ptr @list_create(ptr noundef null)
  %102 = getelementptr inbounds nuw %struct.dbd_list_msg_t, ptr %8, i32 0, i32 0
  store ptr %101, ptr %102, align 8
  br label %103

103:                                              ; preds = %100, %96
  %104 = call ptr @init_buf(i32 noundef 1024)
  %105 = load ptr, ptr %6, align 8
  store ptr %104, ptr %105, align 8
  %106 = load ptr, ptr %6, align 8
  %107 = load ptr, ptr %106, align 8
  call void @pack16(i16 noundef zeroext 1423, ptr noundef %107)
  %108 = load ptr, ptr %4, align 8
  %109 = getelementptr inbounds nuw %struct.slurmdbd_conn_t, ptr %108, i32 0, i32 0
  %110 = load ptr, ptr %109, align 8
  %111 = getelementptr inbounds nuw %struct.persist_conn_t, ptr %110, i32 0, i32 21
  %112 = load i16, ptr %111, align 8
  %113 = load ptr, ptr %6, align 8
  %114 = load ptr, ptr %113, align 8
  call void @slurmdbd_pack_list_msg(ptr noundef %8, i16 noundef zeroext %112, i32 noundef 1423, ptr noundef %114)
  br label %126

115:                                              ; preds = %81
  %116 = load ptr, ptr %4, align 8
  %117 = getelementptr inbounds nuw %struct.slurmdbd_conn_t, ptr %116, i32 0, i32 0
  %118 = load ptr, ptr %117, align 8
  %119 = call ptr @__errno_location() #10
  %120 = load i32, ptr %119, align 4
  %121 = call ptr @__errno_location() #10
  %122 = load i32, ptr %121, align 4
  %123 = call ptr @slurm_strerror(i32 noundef %122)
  %124 = call ptr @slurm_persist_make_rc_msg(ptr noundef %118, i32 noundef %120, ptr noundef %123, i16 noundef zeroext 1415)
  %125 = load ptr, ptr %6, align 8
  store ptr %124, ptr %125, align 8
  store i32 -1, ptr %9, align 4
  br label %126

126:                                              ; preds = %115, %103
  br label %127

127:                                              ; preds = %126
  %128 = getelementptr inbounds nuw %struct.dbd_list_msg_t, ptr %8, i32 0, i32 0
  %129 = load ptr, ptr %128, align 8
  %130 = icmp ne ptr %129, null
  br i1 %130, label %131, label %134

131:                                              ; preds = %127
  %132 = getelementptr inbounds nuw %struct.dbd_list_msg_t, ptr %8, i32 0, i32 0
  %133 = load ptr, ptr %132, align 8
  call void @list_destroy(ptr noundef %133)
  br label %134

134:                                              ; preds = %131, %127
  %135 = getelementptr inbounds nuw %struct.dbd_list_msg_t, ptr %8, i32 0, i32 0
  store ptr null, ptr %135, align 8
  br label %136

136:                                              ; preds = %134
  br label %137

137:                                              ; preds = %136
  %138 = load i32, ptr %9, align 4
  call void @llvm.lifetime.end.p0(i64 8, ptr %10) #8
  call void @llvm.lifetime.end.p0(i64 4, ptr %9) #8
  call void @llvm.lifetime.end.p0(i64 16, ptr %8) #8
  call void @llvm.lifetime.end.p0(i64 8, ptr %7) #8
  ret i32 %138
}