; Function Attrs: nounwind uwtable
define internal fastcc range(i32 -1, 1) i32 @_get_users(ptr noundef readonly captures(none) %0, ptr readonly captures(none) %.8.val, ptr noundef captures(none) initializes((0, 8)) %1) unnamed_addr #0 {
  %3 = alloca %struct.dbd_list_msg_t, align 8
  call void @llvm.lifetime.start.p0(i64 16, ptr nonnull %3) #10
  %4 = getelementptr inbounds nuw i8, ptr %3, i64 8
  store i64 0, ptr %4, align 8
  %5 = tail call i32 @get_log_level() #10
  %6 = icmp sgt i32 %5, 5
  br i1 %6, label %7, label %11

7:                                                ; preds = %2
  %8 = load ptr, ptr %0, align 8
  %9 = getelementptr inbounds nuw i8, ptr %8, i64 60
  %10 = load i32, ptr %9, align 4
  tail call void (i32, ptr, ...) @log_var(i32 noundef 6, ptr noundef nonnull @.str.80, i32 noundef %10) #10
  br label %11

11:                                               ; preds = %7, %2
  %12 = load ptr, ptr %.8.val, align 8
  %13 = getelementptr inbounds nuw i8, ptr %12, i64 32
  %14 = load i16, ptr %13, align 8
  %.not = icmp eq i16 %14, 0
  br i1 %.not, label %15, label %37

15:                                               ; preds = %11
  %16 = getelementptr inbounds nuw i8, ptr %12, i64 38
  %17 = load i16, ptr %16, align 2
  %.not24 = icmp eq i16 %17, 0
  br i1 %.not24, label %18, label %37

18:                                               ; preds = %15
  %19 = load ptr, ptr %0, align 8
  %20 = getelementptr inbounds nuw i8, ptr %19, i64 168
  %21 = load i16, ptr %20, align 8
  %22 = icmp ult i16 %21, 8
  %.phi.trans.insert = getelementptr inbounds nuw i8, ptr %12, i64 8
  %.pre = load ptr, ptr %.phi.trans.insert, align 8
  br i1 %22, label %._crit_edge, label %23

23:                                               ; preds = %18
  %24 = getelementptr inbounds nuw i8, ptr %.pre, i64 24
  %25 = load i32, ptr %24, align 8
  %26 = and i32 %25, 4
  %.not25 = icmp eq i32 %26, 0
  br i1 %.not25, label %37, label %._crit_edge

._crit_edge:                                      ; preds = %18, %23
  %27 = getelementptr inbounds nuw i8, ptr %.pre, i64 8
  %28 = load ptr, ptr %27, align 8
  %.not26 = icmp eq ptr %28, null
  br i1 %.not26, label %29, label %37

29:                                               ; preds = %._crit_edge
  %30 = getelementptr inbounds nuw i8, ptr %12, i64 8
  %31 = tail call ptr @list_create(ptr noundef null) #10
  %32 = load ptr, ptr %0, align 8
  %33 = getelementptr inbounds nuw i8, ptr %32, i64 40
  %34 = load ptr, ptr %33, align 8
  tail call void @list_append(ptr noundef %31, ptr noundef %34) #10
  %35 = load ptr, ptr %30, align 8
  %36 = getelementptr inbounds nuw i8, ptr %35, i64 8
  store ptr %31, ptr %36, align 8
  br label %37

37:                                               ; preds = %._crit_edge, %29, %23, %15, %11
  %38 = getelementptr inbounds nuw i8, ptr %0, i64 56
  %39 = load ptr, ptr %38, align 8
  %40 = load ptr, ptr %0, align 8
  %41 = getelementptr inbounds nuw i8, ptr %40, i64 8
  %42 = load i32, ptr %41, align 8
  %43 = tail call ptr @acct_storage_g_get_users(ptr noundef %39, i32 noundef %42, ptr noundef nonnull %12) #10
  store ptr %43, ptr %3, align 8
  %44 = tail call ptr @__errno_location() #12
  %45 = load i32, ptr %44, align 4
  %.not27 = icmp eq i32 %45, 0
  br i1 %.not27, label %46, label %55

46:                                               ; preds = %37
  %.not28 = icmp eq ptr %43, null
  br i1 %.not28, label %47, label %49

47:                                               ; preds = %46
  %48 = tail call ptr @list_create(ptr noundef null) #10
  store ptr %48, ptr %3, align 8
  br label %49

49:                                               ; preds = %47, %46
  %50 = tail call ptr @init_buf(i32 noundef 1024) #10
  store ptr %50, ptr %1, align 8
  tail call void @pack16(i16 noundef zeroext 1423, ptr noundef %50) #10
  %51 = load ptr, ptr %0, align 8
  %52 = getelementptr inbounds nuw i8, ptr %51, i64 168
  %53 = load i16, ptr %52, align 8
  %54 = load ptr, ptr %1, align 8
  call void @slurmdbd_pack_list_msg(ptr noundef nonnull %3, i16 noundef zeroext %53, i32 noundef 1423, ptr noundef %54) #10
  %.pre1 = load ptr, ptr %3, align 8
  br label %59

55:                                               ; preds = %37
  %56 = load ptr, ptr %0, align 8
  %57 = tail call ptr @slurm_strerror(i32 noundef %45) #10
  %58 = tail call ptr @slurm_persist_make_rc_msg(ptr noundef %56, i32 noundef %45, ptr noundef %57, i16 noundef zeroext 1415) #10
  store ptr %58, ptr %1, align 8
  br label %59

59:                                               ; preds = %49, %55
  %60 = phi ptr [ %43, %55 ], [ %.pre1, %49 ]
  %.0 = phi i32 [ -1, %55 ], [ 0, %49 ]
  %.not29 = icmp eq ptr %60, null
  br i1 %.not29, label %62, label %61

61:                                               ; preds = %59
  call void @list_destroy(ptr noundef nonnull %60) #10
  br label %62

62:                                               ; preds = %61, %59
  call void @llvm.lifetime.end.p0(i64 16, ptr nonnull %3) #10
  ret i32 %.0
}